target datalayout = "e-m:e-p270:32:32-p271:32:32-p272:64:64-i64:64-i128:128-f80:128-n8:16:32:64-S128"
target triple = "x86_64-unknown-linux-gnu"

%class.symbol = type { ptr }
%class.ref_vector = type { %class.ref_vector_core }
%class.ref_vector_core = type { %class.ref_manager_wrapper, %class.ptr_vector }
%class.ref_manager_wrapper = type { ptr }
%class.ptr_vector = type { %class.vector }
%class.vector = type { ptr }
%class.obj_ref = type { ptr, ptr }
%class.obj_map.36 = type { %class.core_hashtable.37 }
%class.core_hashtable.37 = type <{ ptr, i32, i32, i32, [4 x i8] }>
%class.params_ref = type { ptr }
%class.ast = type { i32, i24, i32, i32 }
%"class.qe::expr_quant_elim" = type { ptr, ptr, %class.params_ref, %class.ref_vector, %class.obj_map.36, ptr, ptr }
%"class.qe::quant_elim_new" = type <{ %"class.qe::quant_elim", ptr, ptr, %class.obj_ref, i8, [7 x i8], %class.ptr_vector.62, i8, [7 x i8] }>
%"class.qe::quant_elim" = type { ptr }
%class.ptr_vector.62 = type { %class.vector.63 }
%class.vector.63 = type { ptr }
%struct.smt_params = type { %struct.preprocessor_params.base, %struct.dyn_ack_params, %struct.qi_params, %struct.theory_arith_params.base, i8, %struct.theory_array_params.base, %struct.theory_bv_params, %struct.theory_str_params.base, %struct.theory_seq_params, %struct.theory_pb_params.base, %struct.theory_datatype_params, i8, i8, i8, i8, i8, i8, i32, i8, i32, double, double, i32, i32, i32, i32, i32, i8, i32, i32, i32, i32, i32, i32, i8, i32, i8, i8, i8, i8, i8, %class.symbol, i32, i32, i8, i8, i8, i8, i32, i8, i32, i32, double, i8, double, double, i32, i8, i32, i32, double, i32, i32, i32, i32, i32, double, i8, i8, i8, %class.symbol, i8, i8, i8, i8, i8, i8, i32, i8, i8, i8, i8, i8, i8, i8, i8, i8, double, i8, %class.symbol }
%struct.preprocessor_params.base = type <{ %struct.pattern_inference_params.base, %struct.bit_blaster_params, i32, i32, i8, i8, i8, i8, i8, i8, i8, i8, i8, i8, i8, i8, i8, i8, i8, i8, i8, i8, i8 }>
%struct.pattern_inference_params.base = type <{ i8, [3 x i8], i32, i8, i8, [2 x i8], i32, i8, [3 x i8], i32, i32, i8, [3 x i8], i32, i8, i8 }>
%struct.bit_blaster_params = type { i8, i8 }
%struct.dyn_ack_params = type { i32, i8, double, i32, i32, double }
%struct.qi_params = type { %"class.std::__cxx11::basic_string", %"class.std::__cxx11::basic_string", double, double, i32, i32, i8, i32, i32, i8, i8, i32, i8, i8, i8, i8, i32, i32, i32, i8, i32, ptr }
%"class.std::__cxx11::basic_string" = type { %"struct.std::__cxx11::basic_string<char>::_Alloc_hider", i64, %union.anon }
%"struct.std::__cxx11::basic_string<char>::_Alloc_hider" = type { ptr }
%union.anon = type { i64, [8 x i8] }
%struct.theory_arith_params.base = type <{ i8, i8, [2 x i8], i32, i8, [3 x i8], i32, i8, [3 x i8], i32, i8, i8, [2 x i8], i32, i32, i8, i8, [2 x i8], i32, i32, i8, [3 x i8], i32, i32, i8, [3 x i8], double, double, i8, [3 x i8], i32, i8, i8, i8, i8, i8, [3 x i8], i32, i32, i8, [3 x i8], i32, i8, i8, i8, i8, i8, i8, [2 x i8], i32, i8, i8, [2 x i8], i32, i8, [3 x i8], i32, i8, i8, i8 }>
%struct.theory_array_params.base = type <{ i8, i8, [2 x i8], i32, i8, i8, [2 x i8], i32, i8, i8, i8, i8, i32, i8 }>
%struct.theory_bv_params = type { i32, i8, i8, i8, i8, i32, i8, i8, i8, i8, i32 }
%struct.theory_str_params.base = type <{ i8, i8, i8, i8, i8, i8, i8, i8, double, i32, i32, i32, i32, i32, i8, i8 }>
%struct.theory_seq_params = type { i8, i8, i32, i32 }
%struct.theory_pb_params.base = type <{ i32, i8 }>
%struct.theory_datatype_params = type { i32 }

; Function Attrs: mustprogress nounwind uwtable
define linkonce_odr hidden noundef i32 @_ZNK3ast13get_ref_countEv(ptr noundef nonnull align 4 dereferenceable(16) %this) #4 comdat align 2 {
entry:
  %this.addr = alloca ptr, align 8
  store ptr %this, ptr %this.addr, align 8
  %this1 = load ptr, ptr %this.addr, align 8
  %m_ref_count = getelementptr inbounds %class.ast, ptr %this1, i32 0, i32 2
  %0 = load i32, ptr %m_ref_count, align 4
  ret i32 %0
}

; Function Attrs: mustprogress nounwind uwtable
define linkonce_odr hidden void @_ZN3ast7dec_refEv(ptr noundef nonnull align 4 dereferenceable(16) %this) #4 comdat align 2 {
entry:
  %this.addr = alloca ptr, align 8
  store ptr %this, ptr %this.addr, align 8
  %this1 = load ptr, ptr %this.addr, align 8
  %m_ref_count = getelementptr inbounds %class.ast, ptr %this1, i32 0, i32 2
  %0 = load i32, ptr %m_ref_count, align 4
  %dec = add i32 %0, -1
  store i32 %dec, ptr %m_ref_count, align 4
  ret void
}

; Function Attrs: mustprogress uwtable
define linkonce_odr hidden void @_ZN11ast_manager7dec_refEP3ast(ptr noundef nonnull align 8 dereferenceable(976) %this, ptr noundef %n) #5 comdat align 2 {
entry:
  %this.addr = alloca ptr, align 8
  %n.addr = alloca ptr, align 8
  store ptr %this, ptr %this.addr, align 8
  store ptr %n, ptr %n.addr, align 8
  %this1 = load ptr, ptr %this.addr, align 8
  %0 = load ptr, ptr %n.addr, align 8
  %tobool = icmp ne ptr %0, null
  br i1 %tobool, label %if.then, label %if.end3

if.then:                                          ; preds = %entry
  %1 = load ptr, ptr %n.addr, align 8
  call void @_ZN3ast7dec_refEv(ptr noundef nonnull align 4 dereferenceable(16) %1)
  %2 = load ptr, ptr %n.addr, align 8
  %call = call noundef i32 @_ZNK3ast13get_ref_countEv(ptr noundef nonnull align 4 dereferenceable(16) %2)
  %cmp = icmp eq i32 %call, 0
  br i1 %cmp, label %if.then2, label %if.end

if.then2:                                         ; preds = %if.then
  %3 = load ptr, ptr %n.addr, align 8
  call void @_ZN11ast_manager11delete_nodeEP3ast(ptr noundef nonnull align 8 dereferenceable(976) %this1, ptr noundef %3)
  br label %if.end

if.end:                                           ; preds = %if.then2, %if.then
  br label %if.end3

if.end3:                                          ; preds = %if.end, %entry
  ret void
}

; Function Attrs: noreturn nounwind uwtable
define linkonce_odr hidden void @__clang_call_terminate(ptr noundef %0) #7 comdat {
  %2 = call ptr @__cxa_begin_catch(ptr %0) #3
  call void @_ZSt9terminatev() #15
  unreachable
}

; Function Attrs: mustprogress uwtable
define linkonce_odr hidden void @_ZN7obj_refI4expr11ast_managerE7dec_refEv(ptr noundef nonnull align 8 dereferenceable(16) %this) #5 comdat align 2 {
entry:
  %this.addr = alloca ptr, align 8
  store ptr %this, ptr %this.addr, align 8
  %this1 = load ptr, ptr %this.addr, align 8
  %m_obj = getelementptr inbounds %class.obj_ref, ptr %this1, i32 0, i32 0
  %0 = load ptr, ptr %m_obj, align 8
  %tobool = icmp ne ptr %0, null
  br i1 %tobool, label %if.then, label %if.end

if.then:                                          ; preds = %entry
  %m_manager = getelementptr inbounds %class.obj_ref, ptr %this1, i32 0, i32 1
  %1 = load ptr, ptr %m_manager, align 8
  %m_obj2 = getelementptr inbounds %class.obj_ref, ptr %this1, i32 0, i32 0
  %2 = load ptr, ptr %m_obj2, align 8
  call void @_ZN11ast_manager7dec_refEP3ast(ptr noundef nonnull align 8 dereferenceable(976) %1, ptr noundef %2)
  br label %if.end

if.end:                                           ; preds = %if.then, %entry
  ret void
}

; Function Attrs: mustprogress nounwind uwtable
define linkonce_odr hidden void @_ZN6vectorIPN2qe17quant_elim_pluginELb0EjEC2Ev(ptr noundef nonnull align 8 dereferenceable(8) %this) unnamed_addr #4 comdat align 2 {
entry:
  %this.addr = alloca ptr, align 8
  store ptr %this, ptr %this.addr, align 8
  %this1 = load ptr, ptr %this.addr, align 8
  %m_data = getelementptr inbounds %class.vector.63, ptr %this1, i32 0, i32 0
  store ptr null, ptr %m_data, align 8
  ret void
}

; Function Attrs: mustprogress nounwind uwtable
define linkonce_odr hidden void @_ZN2qe10quant_elimD2Ev(ptr noundef nonnull align 8 dereferenceable(8) %this) unnamed_addr #4 comdat align 2 {
entry:
  %this.addr = alloca ptr, align 8
  store ptr %this, ptr %this.addr, align 8
  ret void
}

; Function Attrs: mustprogress nounwind uwtable
define linkonce_odr hidden void @_ZN7obj_refI4expr11ast_managerED2Ev(ptr noundef nonnull align 8 dereferenceable(16) %this) unnamed_addr #4 comdat align 2 personality ptr @__gxx_personality_v0 {
entry:
  %this.addr = alloca ptr, align 8
  store ptr %this, ptr %this.addr, align 8
  %this1 = load ptr, ptr %this.addr, align 8
  invoke void @_ZN7obj_refI4expr11ast_managerE7dec_refEv(ptr noundef nonnull align 8 dereferenceable(16) %this1)
          to label %invoke.cont unwind label %terminate.lpad

invoke.cont:                                      ; preds = %entry
  ret void

terminate.lpad:                                   ; preds = %entry
  %0 = landingpad { ptr, i32 }
          catch ptr null
  %1 = extractvalue { ptr, i32 } %0, 0
  call void @__clang_call_terminate(ptr %1) #15
  unreachable
}

; Function Attrs: mustprogress nounwind uwtable
define linkonce_odr hidden void @_ZN10ptr_vectorIN2qe17quant_elim_pluginEEC2Ev(ptr noundef nonnull align 8 dereferenceable(8) %this) unnamed_addr #4 comdat align 2 {
entry:
  %this.addr = alloca ptr, align 8
  store ptr %this, ptr %this.addr, align 8
  %this1 = load ptr, ptr %this.addr, align 8
  %0 = getelementptr inbounds i8, ptr %this1, i64 0
  call void @llvm.memset.p0.i64(ptr align 8 %0, i8 0, i64 8, i1 false)
  call void @_ZN6vectorIPN2qe17quant_elim_pluginELb0EjEC2Ev(ptr noundef nonnull align 8 dereferenceable(8) %this1) #3
  ret void
}

; Function Attrs: mustprogress nounwind uwtable
define linkonce_odr hidden void @_ZN7obj_refI4expr11ast_managerEC2ERS1_(ptr noundef nonnull align 8 dereferenceable(16) %this, ptr noundef nonnull align 8 dereferenceable(976) %m) unnamed_addr #4 comdat align 2 {
entry:
  %this.addr = alloca ptr, align 8
  %m.addr = alloca ptr, align 8
  store ptr %this, ptr %this.addr, align 8
  store ptr %m, ptr %m.addr, align 8
  %this1 = load ptr, ptr %this.addr, align 8
  %m_obj = getelementptr inbounds %class.obj_ref, ptr %this1, i32 0, i32 0
  store ptr null, ptr %m_obj, align 8
  %m_manager = getelementptr inbounds %class.obj_ref, ptr %this1, i32 0, i32 1
  %0 = load ptr, ptr %m.addr, align 8
  store ptr %0, ptr %m_manager, align 8
  ret void
}

; Function Attrs: mustprogress nounwind uwtable
define linkonce_odr hidden void @_ZN2qe10quant_elimC2Ev(ptr noundef nonnull align 8 dereferenceable(8) %this) unnamed_addr #4 comdat align 2 {
entry:
  %this.addr = alloca ptr, align 8
  store ptr %this, ptr %this.addr, align 8
  %this1 = load ptr, ptr %this.addr, align 8
  store ptr getelementptr inbounds ({ [9 x ptr] }, ptr @_ZTVN2qe10quant_elimE, i32 0, i32 0, i32 2), ptr %this1, align 8
  ret void
}

; Function Attrs: mustprogress uwtable
define linkonce_odr hidden void @_ZN2qe14quant_elim_newC2ER11ast_managerR10smt_params(ptr noundef nonnull align 8 dereferenceable(57) %this, ptr noundef nonnull align 8 dereferenceable(976) %m, ptr noundef nonnull align 8 dereferenceable(800) %p) unnamed_addr #5 comdat align 2 personality ptr @__gxx_personality_v0 {
entry:
  %this.addr = alloca ptr, align 8
  %m.addr = alloca ptr, align 8
  %p.addr = alloca ptr, align 8
  %exn.slot = alloca ptr, align 8
  %ehselector.slot = alloca i32, align 4
  store ptr %this, ptr %this.addr, align 8
  store ptr %m, ptr %m.addr, align 8
  store ptr %p, ptr %p.addr, align 8
  %this1 = load ptr, ptr %this.addr, align 8
  call void @_ZN2qe10quant_elimC2Ev(ptr noundef nonnull align 8 dereferenceable(8) %this1) #3
  store ptr getelementptr inbounds ({ [10 x ptr] }, ptr @_ZTVN2qe14quant_elim_newE, i32 0, i32 0, i32 2), ptr %this1, align 8
  %m2 = getelementptr inbounds %"class.qe::quant_elim_new", ptr %this1, i32 0, i32 1
  %0 = load ptr, ptr %m.addr, align 8
  store ptr %0, ptr %m2, align 8
  %m_fparams = getelementptr inbounds %"class.qe::quant_elim_new", ptr %this1, i32 0, i32 2
  %1 = load ptr, ptr %p.addr, align 8
  store ptr %1, ptr %m_fparams, align 8
  %m_assumption = getelementptr inbounds %"class.qe::quant_elim_new", ptr %this1, i32 0, i32 3
  %2 = load ptr, ptr %m.addr, align 8
  invoke void @_ZN7obj_refI4expr11ast_managerEC2ERS1_(ptr noundef nonnull align 8 dereferenceable(16) %m_assumption, ptr noundef nonnull align 8 dereferenceable(976) %2)
          to label %invoke.cont unwind label %lpad

invoke.cont:                                      ; preds = %entry
  %m_produce_models = getelementptr inbounds %"class.qe::quant_elim_new", ptr %this1, i32 0, i32 4
  %m_fparams3 = getelementptr inbounds %"class.qe::quant_elim_new", ptr %this1, i32 0, i32 2
  %3 = load ptr, ptr %m_fparams3, align 8
  %m_model = getelementptr inbounds %struct.smt_params, ptr %3, i32 0, i32 74
  %4 = load i8, ptr %m_model, align 1
  %tobool = trunc i8 %4 to i1
  %frombool = zext i1 %tobool to i8
  store i8 %frombool, ptr %m_produce_models, align 8
  %m_plugins = getelementptr inbounds %"class.qe::quant_elim_new", ptr %this1, i32 0, i32 6
  invoke void @_ZN10ptr_vectorIN2qe17quant_elim_pluginEEC2Ev(ptr noundef nonnull align 8 dereferenceable(8) %m_plugins)
          to label %invoke.cont5 unwind label %lpad4

invoke.cont5:                                     ; preds = %invoke.cont
  %m_eliminate_variables_as_block = getelementptr inbounds %"class.qe::quant_elim_new", ptr %this1, i32 0, i32 7
  store i8 1, ptr %m_eliminate_variables_as_block, align 8
  ret void

lpad:                                             ; preds = %entry
  %5 = landingpad { ptr, i32 }
          cleanup
  %6 = extractvalue { ptr, i32 } %5, 0
  store ptr %6, ptr %exn.slot, align 8
  %7 = extractvalue { ptr, i32 } %5, 1
  store i32 %7, ptr %ehselector.slot, align 4
  br label %ehcleanup

lpad4:                                            ; preds = %invoke.cont
  %8 = landingpad { ptr, i32 }
          cleanup
  %9 = extractvalue { ptr, i32 } %8, 0
  store ptr %9, ptr %exn.slot, align 8
  %10 = extractvalue { ptr, i32 } %8, 1
  store i32 %10, ptr %ehselector.slot, align 4
  call void @_ZN7obj_refI4expr11ast_managerED2Ev(ptr noundef nonnull align 8 dereferenceable(16) %m_assumption) #3
  br label %ehcleanup

ehcleanup:                                        ; preds = %lpad4, %lpad
  call void @_ZN2qe10quant_elimD2Ev(ptr noundef nonnull align 8 dereferenceable(8) %this1) #3
  br label %eh.resume

eh.resume:                                        ; preds = %ehcleanup
  %exn = load ptr, ptr %exn.slot, align 8
  %sel = load i32, ptr %ehselector.slot, align 4
  %lpad.val = insertvalue { ptr, i32 } poison, ptr %exn, 0
  %lpad.val6 = insertvalue { ptr, i32 } %lpad.val, i32 %sel, 1
  resume { ptr, i32 } %lpad.val6
}

; Function Attrs: mustprogress uwtable
define hidden void @_ZN2qe15expr_quant_elim7init_qeEv(ptr noundef nonnull align 8 dereferenceable(80) %this) #5 align 2 {
entry:
  %this.addr = alloca ptr, align 8
  store ptr %this, ptr %this.addr, align 8
  %this1 = load ptr, ptr %this.addr, align 8
  %m_qe = getelementptr inbounds %"class.qe::expr_quant_elim", ptr %this1, i32 0, i32 5
  %0 = load ptr, ptr %m_qe, align 8
  %tobool = icmp ne ptr %0, null
  br i1 %tobool, label %if.end, label %if.then

if.then:                                          ; preds = %entry
  %call = call noalias noundef ptr @_ZN6memory8allocateEm(i64 noundef 64)
  %m = getelementptr inbounds %"class.qe::expr_quant_elim", ptr %this1, i32 0, i32 0
  %1 = load ptr, ptr %m, align 8
  %m_fparams = getelementptr inbounds %"class.qe::expr_quant_elim", ptr %this1, i32 0, i32 1
  %2 = load ptr, ptr %m_fparams, align 8
  call void @_ZN2qe14quant_elim_newC2ER11ast_managerR10smt_params(ptr noundef nonnull align 8 dereferenceable(57) %call, ptr noundef nonnull align 8 dereferenceable(976) %1, ptr noundef nonnull align 8 dereferenceable(800) %2)
  %m_qe2 = getelementptr inbounds %"class.qe::expr_quant_elim", ptr %this1, i32 0, i32 5
  store ptr %call, ptr %m_qe2, align 8
  br label %if.end

if.end:                                           ; preds = %if.then, %entry
  ret void
}

; Function Attrs: mustprogress uwtable
define hidden void @_ZN2qe15expr_quant_elim11updt_paramsERK10params_ref(ptr noundef nonnull align 8 dereferenceable(80) %this, ptr noundef nonnull align 8 dereferenceable(8) %p) #5 align 2 {
entry:
  %this.addr = alloca ptr, align 8
  %p.addr = alloca ptr, align 8
  store ptr %this, ptr %this.addr, align 8
  store ptr %p, ptr %p.addr, align 8
  %this1 = load ptr, ptr %this.addr, align 8
  call void @_ZN2qe15expr_quant_elim7init_qeEv(ptr noundef nonnull align 8 dereferenceable(80) %this1)
  %m_qe = getelementptr inbounds %"class.qe::expr_quant_elim", ptr %this1, i32 0, i32 5
  %0 = load ptr, ptr %m_qe, align 8
  %1 = load ptr, ptr %p.addr, align 8
  %vtable = load ptr, ptr %0, align 8
  %vfn = getelementptr inbounds ptr, ptr %vtable, i64 6
  %2 = load ptr, ptr %vfn, align 8
  call void %2(ptr noundef nonnull align 8 dereferenceable(8) %0, ptr noundef nonnull align 8 dereferenceable(8) %1)
  ret void
}