; Function Attrs: mustprogress uwtable
define hidden void @_ZN2qe15expr_quant_elim11updt_paramsERK10params_ref(ptr nocapture noundef nonnull align 8 dereferenceable(80) %this, ptr noundef nonnull align 8 dereferenceable(8) %p) local_unnamed_addr #3 align 2 personality ptr @__gxx_personality_v0 {
entry:
  %m_qe.i = getelementptr inbounds i8, ptr %this, i64 64
  %0 = load ptr, ptr %m_qe.i, align 8
  %tobool.not.i = icmp eq ptr %0, null
  br i1 %tobool.not.i, label %if.then.i, label %entry._ZN2qe15expr_quant_elim7init_qeEv.exit_crit_edge

entry._ZN2qe15expr_quant_elim7init_qeEv.exit_crit_edge: ; preds = %entry
  %vtable.pre = load ptr, ptr %0, align 8
  br label %_ZN2qe15expr_quant_elim7init_qeEv.exit

if.then.i:                                        ; preds = %entry
  %call.i = tail call noalias noundef ptr @_ZN6memory8allocateEm(i64 noundef 64)
  %1 = load ptr, ptr %this, align 8
  %m_fparams.i = getelementptr inbounds i8, ptr %this, i64 8
  %2 = load ptr, ptr %m_fparams.i, align 8
  store ptr getelementptr inbounds ({ [10 x ptr] }, ptr @_ZTVN2qe14quant_elim_newE, i64 0, i32 0, i64 2), ptr %call.i, align 8
  %m2.i.i = getelementptr inbounds i8, ptr %call.i, i64 8
  store ptr %1, ptr %m2.i.i, align 8
  %m_fparams.i.i = getelementptr inbounds i8, ptr %call.i, i64 16
  store ptr %2, ptr %m_fparams.i.i, align 8
  %m_assumption.i.i = getelementptr inbounds i8, ptr %call.i, i64 24
  store ptr null, ptr %m_assumption.i.i, align 8
  %m_manager.i.i.i = getelementptr inbounds i8, ptr %call.i, i64 32
  store ptr %1, ptr %m_manager.i.i.i, align 8
  %m_produce_models.i.i = getelementptr inbounds i8, ptr %call.i, i64 40
  %m_model.i.i = getelementptr inbounds i8, ptr %2, i64 755
  %3 = load i8, ptr %m_model.i.i, align 1
  %4 = and i8 %3, 1
  store i8 %4, ptr %m_produce_models.i.i, align 8
  %m_plugins.i.i = getelementptr inbounds i8, ptr %call.i, i64 48
  store ptr null, ptr %m_plugins.i.i, align 8
  %m_eliminate_variables_as_block.i.i = getelementptr inbounds i8, ptr %call.i, i64 56
  store i8 1, ptr %m_eliminate_variables_as_block.i.i, align 8
  store ptr %call.i, ptr %m_qe.i, align 8
  br label %_ZN2qe15expr_quant_elim7init_qeEv.exit

_ZN2qe15expr_quant_elim7init_qeEv.exit:           ; preds = %entry._ZN2qe15expr_quant_elim7init_qeEv.exit_crit_edge, %if.then.i
  %vtable = phi ptr [ %vtable.pre, %entry._ZN2qe15expr_quant_elim7init_qeEv.exit_crit_edge ], [ getelementptr inbounds ({ [10 x ptr] }, ptr @_ZTVN2qe14quant_elim_newE, i64 0, i32 0, i64 2), %if.then.i ]
  %5 = phi ptr [ %0, %entry._ZN2qe15expr_quant_elim7init_qeEv.exit_crit_edge ], [ %call.i, %if.then.i ]
  %vfn = getelementptr inbounds i8, ptr %vtable, i64 48
  %6 = load ptr, ptr %vfn, align 8
  tail call void %6(ptr noundef nonnull align 8 dereferenceable(8) %5, ptr noundef nonnull align 8 dereferenceable(8) %p)
  ret void
}